; Function Attrs: mustprogress nofree norecurse nosync nounwind willreturn memory(none) uwtable
define hidden noundef range(i32 0, 256) i32 @_ZN2OT4cff138lookup_expert_subset_charset_for_glyphEj(i32 noundef %0) local_unnamed_addr #0 align 2 {
.lr.ph.i.i.i.i:
  %1 = trunc i32 %0 to i16
  br label %2

2:                                                ; preds = %15, %.lr.ph.i.i.i.i
  %.0216.i.i.i.i = phi i32 [ 0, %.lr.ph.i.i.i.i ], [ %.223.i.i.i.i, %15 ]
  %.0245.i.i.i.i = phi i32 [ 85, %.lr.ph.i.i.i.i ], [ %.226.i.i.i.i, %15 ]
  %3 = add i32 %.0245.i.i.i.i, %.0216.i.i.i.i
  %4 = lshr i32 %3, 1
  %5 = zext nneg i32 %4 to i64
  %6 = shl nuw nsw i64 %5, 2
  %7 = getelementptr inbounds nuw i8, ptr @_ZL32expert_subset_charset_sid_to_gid, i64 %6
  %8 = load i16, ptr %7, align 4, !tbaa !9
  %9 = icmp ugt i16 %8, %1
  br i1 %9, label %10, label %12

10:                                               ; preds = %2
  %11 = add nsw i32 %4, -1
  br label %15

12:                                               ; preds = %2
  %.not28.i.i.i.i = icmp eq i16 %8, %1
  br i1 %.not28.i.i.i.i, label %16, label %13

13:                                               ; preds = %12
  %14 = add nuw nsw i32 %4, 1
  br label %15

15:                                               ; preds = %13, %10
  %.226.i.i.i.i = phi i32 [ %11, %10 ], [ %.0245.i.i.i.i, %13 ]
  %.223.i.i.i.i = phi i32 [ %.0216.i.i.i.i, %10 ], [ %14, %13 ]
  %.not.not.i.i.i.i = icmp sgt i32 %.223.i.i.i.i, %.226.i.i.i.i
  br i1 %.not.not.i.i.i.i, label %_ZN17hb_sorted_array_tIK12sid_to_gid_tE7bsearchIjEEPS1_RKT_S4_.exit.thread, label %2, !llvm.loop !11

16:                                               ; preds = %12
  %17 = getelementptr inbounds nuw %struct.sid_to_gid_t, ptr @_ZL32expert_subset_charset_sid_to_gid, i64 %5, i32 1
  %18 = load i8, ptr %17, align 2, !tbaa !13
  %19 = zext i8 %18 to i32
  br label %_ZN17hb_sorted_array_tIK12sid_to_gid_tE7bsearchIjEEPS1_RKT_S4_.exit.thread

_ZN17hb_sorted_array_tIK12sid_to_gid_tE7bsearchIjEEPS1_RKT_S4_.exit.thread: ; preds = %15, %16
  %20 = phi i32 [ %19, %16 ], [ 0, %15 ]
  ret i32 %20
}